target datalayout = "e-m:e-p270:32:32-p271:32:32-p272:64:64-i64:64-i128:128-f80:128-n8:16:32:64-S128"
target triple = "x86_64-pc-linux-gnu"

%"class.std::__cxx11::basic_string" = type { %"struct.std::__cxx11::basic_string<char>::_Alloc_hider", i64, %union.anon }
%"struct.std::__cxx11::basic_string<char>::_Alloc_hider" = type { ptr }
%union.anon = type { i64, [8 x i8] }
%"class.gmx::(anonymous namespace)::SynopsisFormatter" = type { %"class.gmx::(anonymous namespace)::IOptionsFormatter", ptr, i8, i32, i32, i32 }
%"class.gmx::(anonymous namespace)::IOptionsFormatter" = type { ptr }

@.str.4 = private unnamed_addr constant [1 x i8] zeroinitializer, align 1
@.str.13 = private unnamed_addr constant [8 x i8] c" [%s-%s\00", align 1
@.str.14 = private unnamed_addr constant [10 x i8] c":strong:`\00", align 1
@.str.15 = private unnamed_addr constant [14 x i8] c"` :emphasis:`\00", align 1
@.str.16 = private unnamed_addr constant [2 x i8] c" \00", align 1
@.str.17 = private unnamed_addr constant [3 x i8] c"`]\00", align 1
@.str.18 = private unnamed_addr constant [2 x i8] c"]\00", align 1
@.str.19 = private unnamed_addr constant [5 x i8] c"\0A%*c\00", align 1

; Function Attrs: mustprogress uwtable
define internal void @_ZN3gmx12_GLOBAL__N_117SynopsisFormatter12formatOptionERKNS_10OptionInfoE(ptr noundef nonnull align 8 dereferenceable(32) %0, ptr noundef nonnull align 8 dereferenceable(16) %1) unnamed_addr #0 align 2 personality ptr @__gxx_personality_v0 {
  %3 = alloca ptr, align 8
  %4 = alloca ptr, align 8
  %5 = alloca %"class.std::__cxx11::basic_string", align 8
  %6 = alloca %"class.std::__cxx11::basic_string", align 8
  %7 = alloca ptr, align 8
  %8 = alloca i32, align 4
  %9 = alloca i32, align 4
  %10 = alloca %"class.std::__cxx11::basic_string", align 8
  %11 = alloca ptr, align 8
  %12 = alloca %"class.std::__cxx11::basic_string", align 8
  store ptr %0, ptr %3, align 8
  store ptr %1, ptr %4, align 8
  %13 = load ptr, ptr %3, align 8
  call void @_ZNSt7__cxx1112basic_stringIcSt11char_traitsIcESaIcEEC1Ev(ptr noundef nonnull align 8 dereferenceable(32) %5) #11
  call void @_ZNSt7__cxx1112basic_stringIcSt11char_traitsIcESaIcEEC1Ev(ptr noundef nonnull align 8 dereferenceable(32) %6) #11
  %14 = load ptr, ptr %4, align 8
  invoke void @_ZN3gmx12_GLOBAL__N_124formatOptionNameAndValueERKNS_10OptionInfoEPNSt7__cxx1112basic_stringIcSt11char_traitsIcESaIcEEESA_(ptr noundef nonnull align 8 dereferenceable(16) %14, ptr noundef %5, ptr noundef %6)
          to label %15 unwind label %41

15:                                               ; preds = %2
  %16 = call noundef i64 @_ZNKSt7__cxx1112basic_stringIcSt11char_traitsIcESaIcEE6lengthEv(ptr noundef nonnull align 8 dereferenceable(32) %5) #11
  %17 = add i64 %16, 4
  %18 = trunc i64 %17 to i32
  store i32 %18, ptr %9, align 4
  %19 = getelementptr inbounds %"class.gmx::(anonymous namespace)::SynopsisFormatter", ptr %13, i32 0, i32 2
  %20 = load i8, ptr %19, align 8
  %21 = trunc i8 %20 to i1
  %22 = select i1 %21, ptr @.str.14, ptr @.str.4
  %23 = call noundef ptr @_ZNKSt7__cxx1112basic_stringIcSt11char_traitsIcESaIcEE5c_strEv(ptr noundef nonnull align 8 dereferenceable(32) %5) #11
  invoke void (ptr, ptr, ...) @_ZN3gmx12formatStringB5cxx11EPKcz(ptr dead_on_unwind writable sret(%"class.std::__cxx11::basic_string") align 8 %10, ptr noundef @.str.13, ptr noundef %22, ptr noundef %23)
          to label %24 unwind label %41

24:                                               ; preds = %15
  %25 = call noundef zeroext i1 @_ZNKSt7__cxx1112basic_stringIcSt11char_traitsIcESaIcEE5emptyEv(ptr noundef nonnull align 8 dereferenceable(32) %6) #11
  br i1 %25, label %49, label %26

26:                                               ; preds = %24
  %27 = getelementptr inbounds %"class.gmx::(anonymous namespace)::SynopsisFormatter", ptr %13, i32 0, i32 2
  %28 = load i8, ptr %27, align 8
  %29 = trunc i8 %28 to i1
  %30 = select i1 %29, ptr @.str.15, ptr @.str.16
  %31 = invoke noundef nonnull align 8 dereferenceable(32) ptr @_ZNSt7__cxx1112basic_stringIcSt11char_traitsIcESaIcEE6appendEPKc(ptr noundef nonnull align 8 dereferenceable(32) %10, ptr noundef %30)
          to label %32 unwind label %45

32:                                               ; preds = %26
  %33 = invoke noundef nonnull align 8 dereferenceable(32) ptr @_ZNSt7__cxx1112basic_stringIcSt11char_traitsIcESaIcEE6appendERKS4_(ptr noundef nonnull align 8 dereferenceable(32) %10, ptr noundef nonnull align 8 dereferenceable(32) %6)
          to label %34 unwind label %45

34:                                               ; preds = %32
  %35 = call noundef i64 @_ZNKSt7__cxx1112basic_stringIcSt11char_traitsIcESaIcEE6lengthEv(ptr noundef nonnull align 8 dereferenceable(32) %6) #11
  %36 = add i64 %35, 1
  %37 = load i32, ptr %9, align 4
  %38 = sext i32 %37 to i64
  %39 = add i64 %38, %36
  %40 = trunc i64 %39 to i32
  store i32 %40, ptr %9, align 4
  br label %49

41:                                               ; preds = %15, %2
  %42 = landingpad { ptr, i32 }
          cleanup
  %43 = extractvalue { ptr, i32 } %42, 0
  store ptr %43, ptr %7, align 8
  %44 = extractvalue { ptr, i32 } %42, 1
  store i32 %44, ptr %8, align 4
  br label %90

45:                                               ; preds = %86, %69, %55, %49, %32, %26
  %46 = landingpad { ptr, i32 }
          cleanup
  %47 = extractvalue { ptr, i32 } %46, 0
  store ptr %47, ptr %7, align 8
  %48 = extractvalue { ptr, i32 } %46, 1
  store i32 %48, ptr %8, align 4
  br label %89

49:                                               ; preds = %34, %24
  %50 = getelementptr inbounds %"class.gmx::(anonymous namespace)::SynopsisFormatter", ptr %13, i32 0, i32 2
  %51 = load i8, ptr %50, align 8
  %52 = trunc i8 %51 to i1
  %53 = select i1 %52, ptr @.str.17, ptr @.str.18
  %54 = invoke noundef nonnull align 8 dereferenceable(32) ptr @_ZNSt7__cxx1112basic_stringIcSt11char_traitsIcESaIcEE6appendEPKc(ptr noundef nonnull align 8 dereferenceable(32) %10, ptr noundef %53)
          to label %55 unwind label %45

55:                                               ; preds = %49
  %56 = getelementptr inbounds %"class.gmx::(anonymous namespace)::SynopsisFormatter", ptr %13, i32 0, i32 1
  %57 = load ptr, ptr %56, align 8
  %58 = invoke noundef nonnull align 8 dereferenceable(8) ptr @_ZNK3gmx17HelpWriterContext10outputFileEv(ptr noundef nonnull align 8 dereferenceable(8) %57)
          to label %59 unwind label %45

59:                                               ; preds = %55
  store ptr %58, ptr %11, align 8
  %60 = load i32, ptr %9, align 4
  %61 = getelementptr inbounds %"class.gmx::(anonymous namespace)::SynopsisFormatter", ptr %13, i32 0, i32 5
  %62 = load i32, ptr %61, align 4
  %63 = add nsw i32 %62, %60
  store i32 %63, ptr %61, align 4
  %64 = getelementptr inbounds %"class.gmx::(anonymous namespace)::SynopsisFormatter", ptr %13, i32 0, i32 5
  %65 = load i32, ptr %64, align 4
  %66 = getelementptr inbounds %"class.gmx::(anonymous namespace)::SynopsisFormatter", ptr %13, i32 0, i32 3
  %67 = load i32, ptr %66, align 4
  %68 = icmp sge i32 %65, %67
  br i1 %68, label %69, label %86

69:                                               ; preds = %59
  %70 = load ptr, ptr %11, align 8
  %71 = getelementptr inbounds %"class.gmx::(anonymous namespace)::SynopsisFormatter", ptr %13, i32 0, i32 4
  %72 = load i32, ptr %71, align 8
  %73 = sub nsw i32 %72, 1
  invoke void (ptr, ptr, ...) @_ZN3gmx12formatStringB5cxx11EPKcz(ptr dead_on_unwind writable sret(%"class.std::__cxx11::basic_string") align 8 %12, ptr noundef @.str.19, i32 noundef %73, i32 noundef 32)
          to label %74 unwind label %45

74:                                               ; preds = %69
  invoke void @_ZN3gmx10TextWriter11writeStringERKNSt7__cxx1112basic_stringIcSt11char_traitsIcESaIcEEE(ptr noundef nonnull align 8 dereferenceable(8) %70, ptr noundef nonnull align 8 dereferenceable(32) %12)
          to label %75 unwind label %82

75:                                               ; preds = %74
  call void @_ZNSt7__cxx1112basic_stringIcSt11char_traitsIcESaIcEED1Ev(ptr noundef nonnull align 8 dereferenceable(32) %12) #11
  %76 = getelementptr inbounds %"class.gmx::(anonymous namespace)::SynopsisFormatter", ptr %13, i32 0, i32 4
  %77 = load i32, ptr %76, align 8
  %78 = sub nsw i32 %77, 1
  %79 = load i32, ptr %9, align 4
  %80 = add nsw i32 %78, %79
  %81 = getelementptr inbounds %"class.gmx::(anonymous namespace)::SynopsisFormatter", ptr %13, i32 0, i32 5
  store i32 %80, ptr %81, align 4
  br label %86

82:                                               ; preds = %74
  %83 = landingpad { ptr, i32 }
          cleanup
  %84 = extractvalue { ptr, i32 } %83, 0
  store ptr %84, ptr %7, align 8
  %85 = extractvalue { ptr, i32 } %83, 1
  store i32 %85, ptr %8, align 4
  call void @_ZNSt7__cxx1112basic_stringIcSt11char_traitsIcESaIcEED1Ev(ptr noundef nonnull align 8 dereferenceable(32) %12) #11
  br label %89

86:                                               ; preds = %75, %59
  %87 = load ptr, ptr %11, align 8
  invoke void @_ZN3gmx10TextWriter11writeStringERKNSt7__cxx1112basic_stringIcSt11char_traitsIcESaIcEEE(ptr noundef nonnull align 8 dereferenceable(8) %87, ptr noundef nonnull align 8 dereferenceable(32) %10)
          to label %88 unwind label %45

88:                                               ; preds = %86
  call void @_ZNSt7__cxx1112basic_stringIcSt11char_traitsIcESaIcEED1Ev(ptr noundef nonnull align 8 dereferenceable(32) %10) #11
  call void @_ZNSt7__cxx1112basic_stringIcSt11char_traitsIcESaIcEED1Ev(ptr noundef nonnull align 8 dereferenceable(32) %6) #11
  call void @_ZNSt7__cxx1112basic_stringIcSt11char_traitsIcESaIcEED1Ev(ptr noundef nonnull align 8 dereferenceable(32) %5) #11
  ret void

89:                                               ; preds = %82, %45
  call void @_ZNSt7__cxx1112basic_stringIcSt11char_traitsIcESaIcEED1Ev(ptr noundef nonnull align 8 dereferenceable(32) %10) #11
  br label %90

90:                                               ; preds = %89, %41
  call void @_ZNSt7__cxx1112basic_stringIcSt11char_traitsIcESaIcEED1Ev(ptr noundef nonnull align 8 dereferenceable(32) %6) #11
  call void @_ZNSt7__cxx1112basic_stringIcSt11char_traitsIcESaIcEED1Ev(ptr noundef nonnull align 8 dereferenceable(32) %5) #11
  br label %91

91:                                               ; preds = %90
  %92 = load ptr, ptr %7, align 8
  %93 = load i32, ptr %8, align 4
  %94 = insertvalue { ptr, i32 } poison, ptr %92, 0
  %95 = insertvalue { ptr, i32 } %94, i32 %93, 1
  resume { ptr, i32 } %95
}