; Function Attrs: mustprogress uwtable
define internal void @_ZN3gmx12_GLOBAL__N_117SynopsisFormatter12formatOptionERKNS_10OptionInfoE(ptr nocapture noundef nonnull align 8 dereferenceable(32) %0, ptr noundef nonnull align 8 dereferenceable(16) %1) unnamed_addr #0 align 2 personality ptr @__gxx_personality_v0 {
  %3 = alloca %"class.std::__cxx11::basic_string", align 8
  %4 = alloca %"class.std::__cxx11::basic_string", align 8
  %5 = alloca %"class.std::__cxx11::basic_string", align 8
  %6 = alloca %"class.std::__cxx11::basic_string", align 8
  call void @_ZNSt7__cxx1112basic_stringIcSt11char_traitsIcESaIcEEC1Ev(ptr noundef nonnull align 8 dereferenceable(32) %3) #15
  call void @_ZNSt7__cxx1112basic_stringIcSt11char_traitsIcESaIcEEC1Ev(ptr noundef nonnull align 8 dereferenceable(32) %4) #15
  invoke fastcc void @_ZN3gmx12_GLOBAL__N_124formatOptionNameAndValueERKNS_10OptionInfoEPNSt7__cxx1112basic_stringIcSt11char_traitsIcESaIcEEESA_(ptr noundef nonnull align 8 dereferenceable(16) %1, ptr noundef nonnull %3, ptr noundef nonnull %4)
          to label %7 unwind label %30

7:                                                ; preds = %2
  %8 = call noundef i64 @_ZNKSt7__cxx1112basic_stringIcSt11char_traitsIcESaIcEE6lengthEv(ptr noundef nonnull align 8 dereferenceable(32) %3) #15
  %9 = trunc i64 %8 to i32
  %10 = getelementptr inbounds i8, ptr %0, i64 16
  %11 = load i8, ptr %10, align 8
  %12 = trunc i8 %11 to i1
  %13 = select i1 %12, ptr @.str.14, ptr @.str.4
  %14 = call noundef ptr @_ZNKSt7__cxx1112basic_stringIcSt11char_traitsIcESaIcEE5c_strEv(ptr noundef nonnull align 8 dereferenceable(32) %3) #15
  invoke void (ptr, ptr, ...) @_ZN3gmx12formatStringB5cxx11EPKcz(ptr dead_on_unwind nonnull writable sret(%"class.std::__cxx11::basic_string") align 8 %5, ptr noundef nonnull @.str.13, ptr noundef nonnull %13, ptr noundef %14)
          to label %15 unwind label %30

15:                                               ; preds = %7
  %16 = add i32 %9, 4
  %17 = call noundef zeroext i1 @_ZNKSt7__cxx1112basic_stringIcSt11char_traitsIcESaIcEE5emptyEv(ptr noundef nonnull align 8 dereferenceable(32) %4) #15
  br i1 %17, label %34, label %18

18:                                               ; preds = %15
  %19 = load i8, ptr %10, align 8
  %20 = trunc i8 %19 to i1
  %21 = select i1 %20, ptr @.str.15, ptr @.str.16
  %22 = invoke noundef nonnull align 8 dereferenceable(32) ptr @_ZNSt7__cxx1112basic_stringIcSt11char_traitsIcESaIcEE6appendEPKc(ptr noundef nonnull align 8 dereferenceable(32) %5, ptr noundef nonnull %21)
          to label %23 unwind label %32

23:                                               ; preds = %18
  %24 = invoke noundef nonnull align 8 dereferenceable(32) ptr @_ZNSt7__cxx1112basic_stringIcSt11char_traitsIcESaIcEE6appendERKS4_(ptr noundef nonnull align 8 dereferenceable(32) %5, ptr noundef nonnull align 8 dereferenceable(32) %4)
          to label %25 unwind label %32

25:                                               ; preds = %23
  %26 = call noundef i64 @_ZNKSt7__cxx1112basic_stringIcSt11char_traitsIcESaIcEE6lengthEv(ptr noundef nonnull align 8 dereferenceable(32) %4) #15
  %27 = trunc i64 %26 to i32
  %28 = add i32 %9, 5
  %29 = add i32 %28, %27
  br label %34

30:                                               ; preds = %7, %2
  %31 = landingpad { ptr, i32 }
          cleanup
  br label %63

32:                                               ; preds = %60, %49, %39, %34, %23, %18
  %33 = landingpad { ptr, i32 }
          cleanup
  br label %62

34:                                               ; preds = %25, %15
  %.08 = phi i32 [ %16, %15 ], [ %29, %25 ]
  %35 = load i8, ptr %10, align 8
  %36 = trunc i8 %35 to i1
  %37 = select i1 %36, ptr @.str.17, ptr @.str.18
  %38 = invoke noundef nonnull align 8 dereferenceable(32) ptr @_ZNSt7__cxx1112basic_stringIcSt11char_traitsIcESaIcEE6appendEPKc(ptr noundef nonnull align 8 dereferenceable(32) %5, ptr noundef nonnull %37)
          to label %39 unwind label %32

39:                                               ; preds = %34
  %40 = getelementptr inbounds i8, ptr %0, i64 8
  %41 = load ptr, ptr %40, align 8
  %42 = invoke noundef nonnull align 8 dereferenceable(8) ptr @_ZNK3gmx17HelpWriterContext10outputFileEv(ptr noundef nonnull align 8 dereferenceable(8) %41)
          to label %43 unwind label %32

43:                                               ; preds = %39
  %44 = getelementptr inbounds i8, ptr %0, i64 28
  %45 = load i32, ptr %44, align 4
  %46 = add nsw i32 %45, %.08
  store i32 %46, ptr %44, align 4
  %47 = getelementptr inbounds i8, ptr %0, i64 20
  %48 = load i32, ptr %47, align 4
  %.not = icmp slt i32 %46, %48
  br i1 %.not, label %60, label %49

49:                                               ; preds = %43
  %50 = getelementptr inbounds i8, ptr %0, i64 24
  %51 = load i32, ptr %50, align 8
  %52 = add nsw i32 %51, -1
  invoke void (ptr, ptr, ...) @_ZN3gmx12formatStringB5cxx11EPKcz(ptr dead_on_unwind nonnull writable sret(%"class.std::__cxx11::basic_string") align 8 %6, ptr noundef nonnull @.str.19, i32 noundef %52, i32 noundef 32)
          to label %53 unwind label %32

53:                                               ; preds = %49
  invoke void @_ZN3gmx10TextWriter11writeStringERKNSt7__cxx1112basic_stringIcSt11char_traitsIcESaIcEEE(ptr noundef nonnull align 8 dereferenceable(8) %42, ptr noundef nonnull align 8 dereferenceable(32) %6)
          to label %54 unwind label %58

54:                                               ; preds = %53
  call void @_ZNSt7__cxx1112basic_stringIcSt11char_traitsIcESaIcEED1Ev(ptr noundef nonnull align 8 dereferenceable(32) %6) #15
  %55 = load i32, ptr %50, align 8
  %56 = add i32 %.08, -1
  %57 = add i32 %56, %55
  store i32 %57, ptr %44, align 4
  br label %60

58:                                               ; preds = %53
  %59 = landingpad { ptr, i32 }
          cleanup
  call void @_ZNSt7__cxx1112basic_stringIcSt11char_traitsIcESaIcEED1Ev(ptr noundef nonnull align 8 dereferenceable(32) %6) #15
  br label %62

60:                                               ; preds = %54, %43
  invoke void @_ZN3gmx10TextWriter11writeStringERKNSt7__cxx1112basic_stringIcSt11char_traitsIcESaIcEEE(ptr noundef nonnull align 8 dereferenceable(8) %42, ptr noundef nonnull align 8 dereferenceable(32) %5)
          to label %61 unwind label %32

61:                                               ; preds = %60
  call void @_ZNSt7__cxx1112basic_stringIcSt11char_traitsIcESaIcEED1Ev(ptr noundef nonnull align 8 dereferenceable(32) %5) #15
  call void @_ZNSt7__cxx1112basic_stringIcSt11char_traitsIcESaIcEED1Ev(ptr noundef nonnull align 8 dereferenceable(32) %4) #15
  call void @_ZNSt7__cxx1112basic_stringIcSt11char_traitsIcESaIcEED1Ev(ptr noundef nonnull align 8 dereferenceable(32) %3) #15
  ret void

62:                                               ; preds = %58, %32
  %.pn = phi { ptr, i32 } [ %33, %32 ], [ %59, %58 ]
  call void @_ZNSt7__cxx1112basic_stringIcSt11char_traitsIcESaIcEED1Ev(ptr noundef nonnull align 8 dereferenceable(32) %5) #15
  br label %63

63:                                               ; preds = %62, %30
  %.pn.pn = phi { ptr, i32 } [ %.pn, %62 ], [ %31, %30 ]
  call void @_ZNSt7__cxx1112basic_stringIcSt11char_traitsIcESaIcEED1Ev(ptr noundef nonnull align 8 dereferenceable(32) %4) #15
  call void @_ZNSt7__cxx1112basic_stringIcSt11char_traitsIcESaIcEED1Ev(ptr noundef nonnull align 8 dereferenceable(32) %3) #15
  resume { ptr, i32 } %.pn.pn
}